target datalayout = "e-m:e-p270:32:32-p271:32:32-p272:64:64-i64:64-i128:128-f80:128-n8:16:32:64-S128"
target triple = "x86_64-pc-linux-gnu"

%"struct.Luau::CodeGen::A64::RegisterA64" = type { i8 }
%"class.Luau::CodeGen::A64::AssemblyBuilderA64" = type { %"class.std::vector", %"class.std::vector.0", %"class.std::__cxx11::basic_string", i8, i32, i32, %"class.std::vector.8", %"class.std::vector.0", i8, i8, i64, ptr, ptr }
%"class.std::vector" = type { %"struct.std::_Vector_base" }
%"struct.std::_Vector_base" = type { %"struct.std::_Vector_base<unsigned char, std::allocator<unsigned char>>::_Vector_impl" }
%"struct.std::_Vector_base<unsigned char, std::allocator<unsigned char>>::_Vector_impl" = type { %"struct.std::_Vector_base<unsigned char, std::allocator<unsigned char>>::_Vector_impl_data" }
%"struct.std::_Vector_base<unsigned char, std::allocator<unsigned char>>::_Vector_impl_data" = type { ptr, ptr, ptr }
%"class.std::__cxx11::basic_string" = type { %"struct.std::__cxx11::basic_string<char>::_Alloc_hider", i64, %union.anon }
%"struct.std::__cxx11::basic_string<char>::_Alloc_hider" = type { ptr }
%union.anon = type { i64, [8 x i8] }
%"class.std::vector.8" = type { %"struct.std::_Vector_base.9" }
%"struct.std::_Vector_base.9" = type { %"struct.std::_Vector_base<Luau::CodeGen::A64::AssemblyBuilderA64::Patch, std::allocator<Luau::CodeGen::A64::AssemblyBuilderA64::Patch>>::_Vector_impl" }
%"struct.std::_Vector_base<Luau::CodeGen::A64::AssemblyBuilderA64::Patch, std::allocator<Luau::CodeGen::A64::AssemblyBuilderA64::Patch>>::_Vector_impl" = type { %"struct.std::_Vector_base<Luau::CodeGen::A64::AssemblyBuilderA64::Patch, std::allocator<Luau::CodeGen::A64::AssemblyBuilderA64::Patch>>::_Vector_impl_data" }
%"struct.std::_Vector_base<Luau::CodeGen::A64::AssemblyBuilderA64::Patch, std::allocator<Luau::CodeGen::A64::AssemblyBuilderA64::Patch>>::_Vector_impl_data" = type { ptr, ptr, ptr }
%"class.std::vector.0" = type { %"struct.std::_Vector_base.1" }
%"struct.std::_Vector_base.1" = type { %"struct.std::_Vector_base<unsigned int, std::allocator<unsigned int>>::_Vector_impl" }
%"struct.std::_Vector_base<unsigned int, std::allocator<unsigned int>>::_Vector_impl" = type { %"struct.std::_Vector_base<unsigned int, std::allocator<unsigned int>>::_Vector_impl_data" }
%"struct.std::_Vector_base<unsigned int, std::allocator<unsigned int>>::_Vector_impl_data" = type { ptr, ptr, ptr }

@.str.5 = private unnamed_addr constant [4 x i8] c"sub\00", align 1

; Function Attrs: mustprogress uwtable
define dso_local void @_ZN4Luau7CodeGen3A6418AssemblyBuilderA646commitEv(ptr noundef nonnull align 8 dereferenceable(176) %0) #0 align 2 {
  %2 = alloca ptr, align 8
  store ptr %0, ptr %2, align 8, !tbaa !4
  %3 = load ptr, ptr %2, align 8
  %4 = getelementptr inbounds nuw %"class.Luau::CodeGen::A64::AssemblyBuilderA64", ptr %3, i32 0, i32 12
  %5 = load ptr, ptr %4, align 8, !tbaa !41
  %6 = getelementptr inbounds nuw %"class.Luau::CodeGen::A64::AssemblyBuilderA64", ptr %3, i32 0, i32 11
  %7 = load ptr, ptr %6, align 8, !tbaa !40
  %8 = icmp eq ptr %5, %7
  br i1 %8, label %9, label %10

9:                                                ; preds = %1
  call void @_ZN4Luau7CodeGen3A6418AssemblyBuilderA646extendEv(ptr noundef nonnull align 8 dereferenceable(176) %3)
  br label %10

10:                                               ; preds = %9, %1
  ret void
}

; Function Attrs: mustprogress nounwind uwtable
define dso_local void @_ZN4Luau7CodeGen3A6418AssemblyBuilderA645placeEj(ptr noundef nonnull align 8 dereferenceable(176) %0, i32 noundef %1) #1 align 2 {
  %3 = alloca ptr, align 8
  %4 = alloca i32, align 4
  store ptr %0, ptr %3, align 8, !tbaa !4
  store i32 %1, ptr %4, align 4, !tbaa !11
  %5 = load ptr, ptr %3, align 8
  %6 = load i32, ptr %4, align 4, !tbaa !11
  %7 = getelementptr inbounds nuw %"class.Luau::CodeGen::A64::AssemblyBuilderA64", ptr %5, i32 0, i32 11
  %8 = load ptr, ptr %7, align 8, !tbaa !40
  %9 = getelementptr inbounds nuw i32, ptr %8, i32 1
  store ptr %9, ptr %7, align 8, !tbaa !40
  store i32 %6, ptr %8, align 4, !tbaa !11
  ret void
}

; Function Attrs: mustprogress uwtable
define dso_local void @_ZN4Luau7CodeGen3A6418AssemblyBuilderA648placeI12EPKcNS1_11RegisterA64ES5_ih(ptr noundef nonnull align 8 dereferenceable(176) %0, ptr noundef %1, i8 %2, i8 %3, i32 noundef %4, i8 noundef zeroext %5) #0 align 2 {
  %7 = alloca %"struct.Luau::CodeGen::A64::RegisterA64", align 1
  %8 = alloca %"struct.Luau::CodeGen::A64::RegisterA64", align 1
  %9 = alloca ptr, align 8
  %10 = alloca ptr, align 8
  %11 = alloca i32, align 4
  %12 = alloca i8, align 1
  %13 = alloca %"struct.Luau::CodeGen::A64::RegisterA64", align 1
  %14 = alloca %"struct.Luau::CodeGen::A64::RegisterA64", align 1
  %15 = alloca i32, align 4
  %16 = getelementptr inbounds nuw %"struct.Luau::CodeGen::A64::RegisterA64", ptr %7, i32 0, i32 0
  store i8 %2, ptr %16, align 1
  %17 = getelementptr inbounds nuw %"struct.Luau::CodeGen::A64::RegisterA64", ptr %8, i32 0, i32 0
  store i8 %3, ptr %17, align 1
  store ptr %0, ptr %9, align 8, !tbaa !4
  store ptr %1, ptr %10, align 8, !tbaa !61
  store i32 %4, ptr %11, align 4, !tbaa !11
  store i8 %5, ptr %12, align 1, !tbaa !58
  %18 = load ptr, ptr %9, align 8
  %19 = getelementptr inbounds nuw %"class.Luau::CodeGen::A64::AssemblyBuilderA64", ptr %18, i32 0, i32 3
  %20 = load i8, ptr %19, align 8, !tbaa !15, !range !13, !noundef !14
  %21 = trunc i8 %20 to i1
  br i1 %21, label %22, label %29

22:                                               ; preds = %6
  %23 = load ptr, ptr %10, align 8, !tbaa !61
  call void @llvm.memcpy.p0.p0.i64(ptr align 1 %13, ptr align 1 %7, i64 1, i1 false), !tbaa.struct !57
  call void @llvm.memcpy.p0.p0.i64(ptr align 1 %14, ptr align 1 %8, i64 1, i1 false), !tbaa.struct !57
  %24 = load i32, ptr %11, align 4, !tbaa !11
  %25 = getelementptr inbounds nuw %"struct.Luau::CodeGen::A64::RegisterA64", ptr %13, i32 0, i32 0
  %26 = load i8, ptr %25, align 1
  %27 = getelementptr inbounds nuw %"struct.Luau::CodeGen::A64::RegisterA64", ptr %14, i32 0, i32 0
  %28 = load i8, ptr %27, align 1
  call void @_ZN4Luau7CodeGen3A6418AssemblyBuilderA643logEPKcNS1_11RegisterA64ES5_i(ptr noundef nonnull align 8 dereferenceable(176) %18, ptr noundef %23, i8 %26, i8 %28, i32 noundef %24)
  br label %29

29:                                               ; preds = %22, %6
  call void @llvm.lifetime.start.p0(i64 4, ptr %15) #18
  %30 = load i8, ptr %7, align 1
  %31 = and i8 %30, 7
  %32 = icmp ne i8 %31, 1
  %33 = select i1 %32, i32 -2147483648, i32 0
  store i32 %33, ptr %15, align 4, !tbaa !11
  %34 = load i8, ptr %7, align 1
  %35 = lshr i8 %34, 3
  %36 = zext i8 %35 to i32
  %37 = load i8, ptr %8, align 1
  %38 = lshr i8 %37, 3
  %39 = zext i8 %38 to i32
  %40 = shl i32 %39, 5
  %41 = or i32 %36, %40
  %42 = load i32, ptr %11, align 4, !tbaa !11
  %43 = shl i32 %42, 10
  %44 = or i32 %41, %43
  %45 = load i8, ptr %12, align 1, !tbaa !58
  %46 = zext i8 %45 to i32
  %47 = shl i32 %46, 24
  %48 = or i32 %44, %47
  %49 = load i32, ptr %15, align 4, !tbaa !11
  %50 = or i32 %48, %49
  call void @_ZN4Luau7CodeGen3A6418AssemblyBuilderA645placeEj(ptr noundef nonnull align 8 dereferenceable(176) %18, i32 noundef %50)
  call void @_ZN4Luau7CodeGen3A6418AssemblyBuilderA646commitEv(ptr noundef nonnull align 8 dereferenceable(176) %18)
  call void @llvm.lifetime.end.p0(i64 4, ptr %15) #18
  ret void
}

; Function Attrs: mustprogress uwtable
define dso_local void @_ZN4Luau7CodeGen3A6418AssemblyBuilderA643subENS1_11RegisterA64ES3_t(ptr noundef nonnull align 8 dereferenceable(176) %0, i8 %1, i8 %2, i16 noundef zeroext %3) #0 align 2 {
  %5 = alloca %"struct.Luau::CodeGen::A64::RegisterA64", align 1
  %6 = alloca %"struct.Luau::CodeGen::A64::RegisterA64", align 1
  %7 = alloca ptr, align 8
  %8 = alloca i16, align 2
  %9 = alloca %"struct.Luau::CodeGen::A64::RegisterA64", align 1
  %10 = alloca %"struct.Luau::CodeGen::A64::RegisterA64", align 1
  %11 = getelementptr inbounds nuw %"struct.Luau::CodeGen::A64::RegisterA64", ptr %5, i32 0, i32 0
  store i8 %1, ptr %11, align 1
  %12 = getelementptr inbounds nuw %"struct.Luau::CodeGen::A64::RegisterA64", ptr %6, i32 0, i32 0
  store i8 %2, ptr %12, align 1
  store ptr %0, ptr %7, align 8, !tbaa !4
  store i16 %3, ptr %8, align 2, !tbaa !62
  %13 = load ptr, ptr %7, align 8
  call void @llvm.memcpy.p0.p0.i64(ptr align 1 %9, ptr align 1 %5, i64 1, i1 false), !tbaa.struct !57
  call void @llvm.memcpy.p0.p0.i64(ptr align 1 %10, ptr align 1 %6, i64 1, i1 false), !tbaa.struct !57
  %14 = load i16, ptr %8, align 2, !tbaa !62
  %15 = zext i16 %14 to i32
  %16 = getelementptr inbounds nuw %"struct.Luau::CodeGen::A64::RegisterA64", ptr %9, i32 0, i32 0
  %17 = load i8, ptr %16, align 1
  %18 = getelementptr inbounds nuw %"struct.Luau::CodeGen::A64::RegisterA64", ptr %10, i32 0, i32 0
  %19 = load i8, ptr %18, align 1
  call void @_ZN4Luau7CodeGen3A6418AssemblyBuilderA648placeI12EPKcNS1_11RegisterA64ES5_ih(ptr noundef nonnull align 8 dereferenceable(176) %13, ptr noundef @.str.5, i8 %17, i8 %19, i32 noundef %15, i8 noundef zeroext 81)
  ret void
}