; Function Attrs: mustprogress uwtable
define dso_local void @_ZN4Luau7CodeGen3A6418AssemblyBuilderA643subENS1_11RegisterA64ES3_t(ptr noundef nonnull align 8 dereferenceable(176) %0, i8 %1, i8 %2, i16 noundef zeroext %3) local_unnamed_addr #0 align 2 {
  %5 = zext i16 %3 to i32
  %6 = getelementptr inbounds nuw i8, ptr %0, i64 80
  %7 = load i8, ptr %6, align 8, !tbaa !14, !range !46, !noundef !47
  %8 = trunc nuw i8 %7 to i1
  br i1 %8, label %9, label %10

9:                                                ; preds = %4
  tail call void @_ZN4Luau7CodeGen3A6418AssemblyBuilderA643logEPKcNS1_11RegisterA64ES5_i(ptr noundef nonnull align 8 dereferenceable(176) %0, ptr noundef nonnull @.str.5, i8 %1, i8 %2, i32 noundef %5)
  br label %10

10:                                               ; preds = %9, %4
  %11 = and i8 %1, 7
  %.not.i = icmp eq i8 %11, 1
  %12 = lshr i8 %1, 3
  %13 = zext nneg i8 %12 to i32
  %14 = lshr i8 %2, 3
  %15 = zext nneg i8 %14 to i32
  %16 = shl nuw nsw i32 %15, 5
  %17 = or disjoint i32 %16, %13
  %18 = shl nuw nsw i32 %5, 10
  %19 = or disjoint i32 %17, %18
  %20 = select i1 %.not.i, i32 1358954496, i32 -788529152
  %21 = or i32 %19, %20
  %22 = getelementptr inbounds nuw i8, ptr %0, i64 160
  %23 = load ptr, ptr %22, align 8, !tbaa !39
  %24 = getelementptr inbounds nuw i8, ptr %23, i64 4
  store ptr %24, ptr %22, align 8, !tbaa !39
  store i32 %21, ptr %23, align 4, !tbaa !48
  %25 = getelementptr inbounds nuw i8, ptr %0, i64 168
  %26 = load ptr, ptr %25, align 8, !tbaa !40
  %27 = icmp eq ptr %26, %24
  br i1 %27, label %28, label %_ZN4Luau7CodeGen3A6418AssemblyBuilderA648placeI12EPKcNS1_11RegisterA64ES5_ih.exit

28:                                               ; preds = %10
  tail call void @_ZN4Luau7CodeGen3A6418AssemblyBuilderA646extendEv(ptr noundef nonnull align 8 dereferenceable(176) %0)
  br label %_ZN4Luau7CodeGen3A6418AssemblyBuilderA648placeI12EPKcNS1_11RegisterA64ES5_ih.exit

_ZN4Luau7CodeGen3A6418AssemblyBuilderA648placeI12EPKcNS1_11RegisterA64ES5_ih.exit: ; preds = %10, %28
  ret void
}